; Function Attrs: null_pointer_is_valid sspstrong uwtable
define internal i32 @dissect_ExtendedContentType_PDU(ptr noundef %0, ptr noundef %1, ptr noundef %2, ptr readnone captures(none) %3) #0 {
  %5 = alloca %struct._asn1_ctx_t, align 8
  call void @llvm.lifetime.start.p0(i64 208, ptr nonnull %5) #5
  call void @asn1_ctx_init(ptr noundef nonnull %5, i32 noundef 0, i1 noundef zeroext true, ptr noundef %1)
  %6 = load i32, ptr @hf_p1_ExtendedContentType_PDU, align 4
  %7 = getelementptr inbounds nuw i8, ptr %5, i64 136
  %8 = load ptr, ptr %7, align 8
  %9 = icmp eq ptr %8, null
  br i1 %9, label %10, label %16

10:                                               ; preds = %4
  %11 = getelementptr inbounds nuw i8, ptr %5, i64 16
  %12 = load ptr, ptr %11, align 8
  %13 = getelementptr inbounds nuw i8, ptr %12, i64 408
  %14 = load ptr, ptr %13, align 8
  %15 = call noalias dereferenceable_or_null(32) ptr @wmem_alloc0(ptr noundef %14, i64 noundef 32) #6
  store ptr %15, ptr %7, align 8
  br label %16

16:                                               ; preds = %10, %4
  %17 = phi ptr [ %15, %10 ], [ %8, %4 ]
  %18 = getelementptr inbounds nuw i8, ptr %17, i64 8
  %19 = call i32 @dissect_ber_object_identifier_str(i1 noundef zeroext false, ptr noundef nonnull %5, ptr noundef %2, ptr noundef %0, i32 noundef 0, i32 noundef %6, ptr noundef nonnull %18)
  %20 = load ptr, ptr %18, align 8
  %.not.i = icmp eq ptr %20, null
  br i1 %.not.i, label %dissect_p1_ExtendedContentType.exit, label %21

21:                                               ; preds = %16
  %22 = getelementptr inbounds nuw i8, ptr %5, i64 16
  %23 = load ptr, ptr %22, align 8
  %24 = getelementptr inbounds nuw i8, ptr %23, i64 408
  %25 = load ptr, ptr %24, align 8
  %26 = call ptr @oid_resolved_from_string(ptr noundef %25, ptr noundef nonnull %20)
  %.not20.i = icmp eq ptr %26, null
  br i1 %.not20.i, label %27, label %29

27:                                               ; preds = %21
  %28 = load ptr, ptr %18, align 8
  br label %29

29:                                               ; preds = %27, %21
  %.0.i = phi ptr [ %26, %21 ], [ %28, %27 ]
  call void (ptr, ptr, ...) @proto_item_append_text(ptr noundef %2, ptr noundef nonnull @.str.6, ptr noundef %.0.i)
  br label %dissect_p1_ExtendedContentType.exit

dissect_p1_ExtendedContentType.exit:              ; preds = %16, %29
  call void @llvm.lifetime.end.p0(i64 208, ptr nonnull %5) #5
  ret i32 %19
}